target datalayout = "e-m:e-p270:32:32-p271:32:32-p272:64:64-i64:64-i128:128-f80:128-n8:16:32:64-S128"
target triple = "x86_64-pc-linux-gnu"

%struct.H5FL_seq_head_t = type { %struct.H5FL_blk_head_t, i64 }
%struct.H5FL_blk_head_t = type { i8, i32, i32, i64, ptr, ptr }
%struct.H5EA_hdr_t = type { %struct.H5C_cache_entry_t, %struct.H5EA_create_t, i64, %struct.H5EA_stat_t, %struct.anon.1, i64, i64, i64, ptr, i64, i8, i64, i64, i8, i64, ptr, i64, ptr, i8, ptr, ptr }
%struct.H5C_cache_entry_t = type { ptr, i64, i64, ptr, i8, ptr, i8, i8, i8, i8, i32, i8, i8, i8, i8, i8, i32, ptr, i32, i32, i32, i32, i32, i8, i8, ptr, ptr, ptr, ptr, ptr, ptr, i8, i32, i8, i64, ptr, i64, i64, i32, i8, i32, i32, i8, ptr, ptr, ptr }
%struct.H5EA_create_t = type { ptr, i8, i8, i8, i8, i8, i8 }
%struct.H5EA_stat_t = type { %struct.anon, %struct.anon.0 }
%struct.anon = type { i64, i64, i64 }
%struct.anon.0 = type { i64, i64, i64, i64, i64, i64 }
%struct.anon.1 = type { i64, ptr }
%struct.H5EA_class_t = type { i32, ptr, i64, ptr, ptr, ptr, ptr, ptr, ptr, ptr, ptr }

@.str = private unnamed_addr constant [101 x i8] c"generated/home/dtcxzyw/WorkSpace/Projects/compilers/llvm-opt-benchmark/bench/hdf5/hdf5/src/H5EAhdr.c\00", align 1
@H5E_EARRAY_g = external global i64, align 8
@H5E_CANTALLOC_g = external global i64, align 8
@H5_H5FL_fac_head_ptr_t_seq_free_list = internal global %struct.H5FL_seq_head_t { %struct.H5FL_blk_head_t { i8 0, i32 0, i32 0, i64 0, ptr @.str.27, ptr null }, i64 8 }, align 8
@__func__.H5EA__hdr_alloc_elmts = private unnamed_addr constant [22 x i8] c"H5EA__hdr_alloc_elmts\00", align 1
@.str.5 = private unnamed_addr constant [74 x i8] c"memory allocation failed for data block data element buffer factory array\00", align 1
@H5E_CANTINIT_g = external global i64, align 8
@.str.6 = private unnamed_addr constant [52 x i8] c"can't create data block data element buffer factory\00", align 1
@.str.7 = private unnamed_addr constant [60 x i8] c"memory allocation failed for data block data element buffer\00", align 1

; Function Attrs: nounwind willreturn memory(read) uwtable
define internal i32 @H5VM_log2_of2(i32 noundef %0) #2 {
  %2 = alloca i32, align 4
  store i32 %0, ptr %2, align 4
  %3 = load i32, ptr %2, align 4
  %4 = mul i32 %3, 125613361
  %5 = lshr i32 %4, 27
  %6 = zext i32 %5 to i64
  %7 = getelementptr inbounds [32 x i32], ptr @MultiplyDeBruijnBitPosition, i64 0, i64 %6
  %8 = load i32, ptr %7, align 4
  ret i32 %8
}

; Function Attrs: nounwind uwtable
define noalias ptr @H5EA__hdr_alloc_elmts(ptr noundef %0, i64 noundef %1) #0 {
  %3 = alloca ptr, align 8
  %4 = alloca i64, align 8
  %5 = alloca ptr, align 8
  %6 = alloca i32, align 4
  %7 = alloca ptr, align 8
  %8 = alloca i8, align 1
  %9 = alloca ptr, align 8
  %10 = alloca i64, align 8
  store ptr %0, ptr %3, align 8
  store i64 %1, ptr %4, align 8
  store ptr null, ptr %5, align 8
  store ptr null, ptr %7, align 8
  store i8 0, ptr %8, align 1
  %11 = load i64, ptr %4, align 8
  %12 = trunc i64 %11 to i32
  %13 = call i32 @H5VM_log2_of2(i32 noundef %12) #5
  %14 = load ptr, ptr %3, align 8
  %15 = getelementptr inbounds %struct.H5EA_hdr_t, ptr %14, i32 0, i32 1
  %16 = getelementptr inbounds %struct.H5EA_create_t, ptr %15, i32 0, i32 4
  %17 = load i8, ptr %16, align 1
  %18 = zext i8 %17 to i32
  %19 = call i32 @H5VM_log2_of2(i32 noundef %18) #5
  %20 = sub i32 %13, %19
  store i32 %20, ptr %6, align 4
  %21 = load i32, ptr %6, align 4
  %22 = zext i32 %21 to i64
  %23 = load ptr, ptr %3, align 8
  %24 = getelementptr inbounds %struct.H5EA_hdr_t, ptr %23, i32 0, i32 4
  %25 = getelementptr inbounds %struct.anon.1, ptr %24, i32 0, i32 0
  %26 = load i64, ptr %25, align 8
  %27 = icmp uge i64 %22, %26
  br i1 %27, label %28, label %120

28:                                               ; preds = %2
  %29 = load i32, ptr %6, align 4
  %30 = add i32 %29, 1
  %31 = zext i32 %30 to i64
  %32 = load ptr, ptr %3, align 8
  %33 = getelementptr inbounds %struct.H5EA_hdr_t, ptr %32, i32 0, i32 4
  %34 = getelementptr inbounds %struct.anon.1, ptr %33, i32 0, i32 0
  %35 = load i64, ptr %34, align 8
  %36 = mul i64 2, %35
  %37 = icmp ugt i64 %31, %36
  br i1 %37, label %38, label %42

38:                                               ; preds = %28
  %39 = load i32, ptr %6, align 4
  %40 = add i32 %39, 1
  %41 = zext i32 %40 to i64
  br label %48

42:                                               ; preds = %28
  %43 = load ptr, ptr %3, align 8
  %44 = getelementptr inbounds %struct.H5EA_hdr_t, ptr %43, i32 0, i32 4
  %45 = getelementptr inbounds %struct.anon.1, ptr %44, i32 0, i32 0
  %46 = load i64, ptr %45, align 8
  %47 = mul i64 2, %46
  br label %48

48:                                               ; preds = %42, %38
  %49 = phi i64 [ %41, %38 ], [ %47, %42 ]
  %50 = icmp ugt i64 1, %49
  br i1 %50, label %51, label %52

51:                                               ; preds = %48
  br label %74

52:                                               ; preds = %48
  %53 = load i32, ptr %6, align 4
  %54 = add i32 %53, 1
  %55 = zext i32 %54 to i64
  %56 = load ptr, ptr %3, align 8
  %57 = getelementptr inbounds %struct.H5EA_hdr_t, ptr %56, i32 0, i32 4
  %58 = getelementptr inbounds %struct.anon.1, ptr %57, i32 0, i32 0
  %59 = load i64, ptr %58, align 8
  %60 = mul i64 2, %59
  %61 = icmp ugt i64 %55, %60
  br i1 %61, label %62, label %66

62:                                               ; preds = %52
  %63 = load i32, ptr %6, align 4
  %64 = add i32 %63, 1
  %65 = zext i32 %64 to i64
  br label %72

66:                                               ; preds = %52
  %67 = load ptr, ptr %3, align 8
  %68 = getelementptr inbounds %struct.H5EA_hdr_t, ptr %67, i32 0, i32 4
  %69 = getelementptr inbounds %struct.anon.1, ptr %68, i32 0, i32 0
  %70 = load i64, ptr %69, align 8
  %71 = mul i64 2, %70
  br label %72

72:                                               ; preds = %66, %62
  %73 = phi i64 [ %65, %62 ], [ %71, %66 ]
  br label %74

74:                                               ; preds = %72, %51
  %75 = phi i64 [ 1, %51 ], [ %73, %72 ]
  store i64 %75, ptr %10, align 8
  %76 = load ptr, ptr %3, align 8
  %77 = getelementptr inbounds %struct.H5EA_hdr_t, ptr %76, i32 0, i32 4
  %78 = getelementptr inbounds %struct.anon.1, ptr %77, i32 0, i32 1
  %79 = load ptr, ptr %78, align 8
  %80 = load i64, ptr %10, align 8
  %81 = call ptr @H5FL_seq_realloc(ptr noundef @H5_H5FL_fac_head_ptr_t_seq_free_list, ptr noundef %79, i64 noundef %80)
  store ptr %81, ptr %9, align 8
  %82 = icmp eq ptr null, %81
  br i1 %82, label %83, label %98

83:                                               ; preds = %74
  br label %84

84:                                               ; preds = %83
  br label %85

85:                                               ; preds = %84
  br label %86

86:                                               ; preds = %85
  %87 = load i64, ptr @H5E_EARRAY_g, align 8
  %88 = load i64, ptr @H5E_CANTALLOC_g, align 8
  %89 = call i32 (ptr, ptr, i32, i64, i64, ptr, ...) @H5E_printf_stack(ptr noundef @.str, ptr noundef @__func__.H5EA__hdr_alloc_elmts, i32 noundef 256, i64 noundef %87, i64 noundef %88, ptr noundef @.str.5)
  br label %90

90:                                               ; preds = %86
  store i8 1, ptr %8, align 1
  %91 = load i8, ptr %8, align 1
  %92 = trunc i8 %91 to i1
  %93 = zext i1 %92 to i8
  store i8 %93, ptr %8, align 1
  br label %94

94:                                               ; preds = %90
  br label %95

95:                                               ; preds = %94
  store ptr null, ptr %7, align 8
  br label %192

96:                                               ; No predecessors!
  br label %97

97:                                               ; preds = %96
  br label %98

98:                                               ; preds = %97, %74
  %99 = load ptr, ptr %9, align 8
  %100 = load ptr, ptr %3, align 8
  %101 = getelementptr inbounds %struct.H5EA_hdr_t, ptr %100, i32 0, i32 4
  %102 = getelementptr inbounds %struct.anon.1, ptr %101, i32 0, i32 0
  %103 = load i64, ptr %102, align 8
  %104 = getelementptr inbounds ptr, ptr %99, i64 %103
  %105 = load i64, ptr %10, align 8
  %106 = load ptr, ptr %3, align 8
  %107 = getelementptr inbounds %struct.H5EA_hdr_t, ptr %106, i32 0, i32 4
  %108 = getelementptr inbounds %struct.anon.1, ptr %107, i32 0, i32 0
  %109 = load i64, ptr %108, align 8
  %110 = sub i64 %105, %109
  %111 = mul i64 %110, 8
  call void @llvm.memset.p0.i64(ptr align 8 %104, i8 0, i64 %111, i1 false)
  %112 = load i64, ptr %10, align 8
  %113 = load ptr, ptr %3, align 8
  %114 = getelementptr inbounds %struct.H5EA_hdr_t, ptr %113, i32 0, i32 4
  %115 = getelementptr inbounds %struct.anon.1, ptr %114, i32 0, i32 0
  store i64 %112, ptr %115, align 8
  %116 = load ptr, ptr %9, align 8
  %117 = load ptr, ptr %3, align 8
  %118 = getelementptr inbounds %struct.H5EA_hdr_t, ptr %117, i32 0, i32 4
  %119 = getelementptr inbounds %struct.anon.1, ptr %118, i32 0, i32 1
  store ptr %116, ptr %119, align 8
  br label %120

120:                                              ; preds = %98, %2
  %121 = load ptr, ptr %3, align 8
  %122 = getelementptr inbounds %struct.H5EA_hdr_t, ptr %121, i32 0, i32 4
  %123 = getelementptr inbounds %struct.anon.1, ptr %122, i32 0, i32 1
  %124 = load ptr, ptr %123, align 8
  %125 = load i32, ptr %6, align 4
  %126 = zext i32 %125 to i64
  %127 = getelementptr inbounds ptr, ptr %124, i64 %126
  %128 = load ptr, ptr %127, align 8
  %129 = icmp eq ptr null, %128
  br i1 %129, label %130, label %164

130:                                              ; preds = %120
  %131 = load i64, ptr %4, align 8
  %132 = load ptr, ptr %3, align 8
  %133 = getelementptr inbounds %struct.H5EA_hdr_t, ptr %132, i32 0, i32 1
  %134 = getelementptr inbounds %struct.H5EA_create_t, ptr %133, i32 0, i32 0
  %135 = load ptr, ptr %134, align 8
  %136 = getelementptr inbounds %struct.H5EA_class_t, ptr %135, i32 0, i32 2
  %137 = load i64, ptr %136, align 8
  %138 = mul i64 %131, %137
  %139 = call ptr @H5FL_fac_init(i64 noundef %138)
  %140 = load ptr, ptr %3, align 8
  %141 = getelementptr inbounds %struct.H5EA_hdr_t, ptr %140, i32 0, i32 4
  %142 = getelementptr inbounds %struct.anon.1, ptr %141, i32 0, i32 1
  %143 = load ptr, ptr %142, align 8
  %144 = load i32, ptr %6, align 4
  %145 = zext i32 %144 to i64
  %146 = getelementptr inbounds ptr, ptr %143, i64 %145
  store ptr %139, ptr %146, align 8
  %147 = icmp eq ptr null, %139
  br i1 %147, label %148, label %163

148:                                              ; preds = %130
  br label %149

149:                                              ; preds = %148
  br label %150

150:                                              ; preds = %149
  br label %151

151:                                              ; preds = %150
  %152 = load i64, ptr @H5E_EARRAY_g, align 8
  %153 = load i64, ptr @H5E_CANTINIT_g, align 8
  %154 = call i32 (ptr, ptr, i32, i64, i64, ptr, ...) @H5E_printf_stack(ptr noundef @.str, ptr noundef @__func__.H5EA__hdr_alloc_elmts, i32 noundef 271, i64 noundef %152, i64 noundef %153, ptr noundef @.str.6)
  br label %155

155:                                              ; preds = %151
  store i8 1, ptr %8, align 1
  %156 = load i8, ptr %8, align 1
  %157 = trunc i8 %156 to i1
  %158 = zext i1 %157 to i8
  store i8 %158, ptr %8, align 1
  br label %159

159:                                              ; preds = %155
  br label %160

160:                                              ; preds = %159
  store ptr null, ptr %7, align 8
  br label %192

161:                                              ; No predecessors!
  br label %162

162:                                              ; preds = %161
  br label %163

163:                                              ; preds = %162, %130
  br label %164

164:                                              ; preds = %163, %120
  %165 = load ptr, ptr %3, align 8
  %166 = getelementptr inbounds %struct.H5EA_hdr_t, ptr %165, i32 0, i32 4
  %167 = getelementptr inbounds %struct.anon.1, ptr %166, i32 0, i32 1
  %168 = load ptr, ptr %167, align 8
  %169 = load i32, ptr %6, align 4
  %170 = zext i32 %169 to i64
  %171 = getelementptr inbounds ptr, ptr %168, i64 %170
  %172 = load ptr, ptr %171, align 8
  %173 = call noalias ptr @H5FL_fac_malloc(ptr noundef %172)
  store ptr %173, ptr %5, align 8
  %174 = icmp eq ptr null, %173
  br i1 %174, label %175, label %190

175:                                              ; preds = %164
  br label %176

176:                                              ; preds = %175
  br label %177

177:                                              ; preds = %176
  br label %178

178:                                              ; preds = %177
  %179 = load i64, ptr @H5E_EARRAY_g, align 8
  %180 = load i64, ptr @H5E_CANTALLOC_g, align 8
  %181 = call i32 (ptr, ptr, i32, i64, i64, ptr, ...) @H5E_printf_stack(ptr noundef @.str, ptr noundef @__func__.H5EA__hdr_alloc_elmts, i32 noundef 277, i64 noundef %179, i64 noundef %180, ptr noundef @.str.7)
  br label %182

182:                                              ; preds = %178
  store i8 1, ptr %8, align 1
  %183 = load i8, ptr %8, align 1
  %184 = trunc i8 %183 to i1
  %185 = zext i1 %184 to i8
  store i8 %185, ptr %8, align 1
  br label %186

186:                                              ; preds = %182
  br label %187

187:                                              ; preds = %186
  store ptr null, ptr %7, align 8
  br label %192

188:                                              ; No predecessors!
  br label %189

189:                                              ; preds = %188
  br label %190

190:                                              ; preds = %189, %164
  %191 = load ptr, ptr %5, align 8
  store ptr %191, ptr %7, align 8
  br label %192

192:                                              ; preds = %190, %187, %160, %95
  %193 = load ptr, ptr %7, align 8
  %194 = icmp ne ptr %193, null
  br i1 %194, label %210, label %195

195:                                              ; preds = %192
  %196 = load ptr, ptr %5, align 8
  %197 = icmp ne ptr %196, null
  br i1 %197, label %198, label %209

198:                                              ; preds = %195
  %199 = load ptr, ptr %3, align 8
  %200 = getelementptr inbounds %struct.H5EA_hdr_t, ptr %199, i32 0, i32 4
  %201 = getelementptr inbounds %struct.anon.1, ptr %200, i32 0, i32 1
  %202 = load ptr, ptr %201, align 8
  %203 = load i32, ptr %6, align 4
  %204 = zext i32 %203 to i64
  %205 = getelementptr inbounds ptr, ptr %202, i64 %204
  %206 = load ptr, ptr %205, align 8
  %207 = load ptr, ptr %5, align 8
  %208 = call ptr @H5FL_fac_free(ptr noundef %206, ptr noundef %207)
  store ptr %208, ptr %5, align 8
  br label %209

209:                                              ; preds = %198, %195
  br label %210

210:                                              ; preds = %209, %192
  %211 = load ptr, ptr %7, align 8
  ret ptr %211
}