; Function Attrs: nounwind uwtable
define noalias ptr @H5EA__hdr_alloc_elmts(ptr nocapture noundef %0, i64 noundef %1) local_unnamed_addr #0 {
  %3 = mul i64 %1, 125613361
  %4 = lshr i64 %3, 27
  %5 = and i64 %4, 31
  %6 = getelementptr inbounds [32 x i32], ptr @MultiplyDeBruijnBitPosition, i64 0, i64 %5
  %7 = load i32, ptr %6, align 4
  %8 = getelementptr inbounds i8, ptr %0, i64 248
  %9 = getelementptr inbounds i8, ptr %0, i64 259
  %10 = load i8, ptr %9, align 1
  %11 = zext i8 %10 to i64
  %12 = mul nuw nsw i64 %11, 125613361
  %13 = lshr i64 %12, 27
  %14 = and i64 %13, 31
  %15 = getelementptr inbounds [32 x i32], ptr @MultiplyDeBruijnBitPosition, i64 0, i64 %14
  %16 = load i32, ptr %15, align 4
  %17 = sub i32 %7, %16
  %18 = zext i32 %17 to i64
  %19 = getelementptr inbounds i8, ptr %0, i64 344
  %20 = load i64, ptr %19, align 8
  %.not = icmp ugt i64 %20, %18
  br i1 %.not, label %._crit_edge, label %21

._crit_edge:                                      ; preds = %2
  %.phi.trans.insert = getelementptr inbounds i8, ptr %0, i64 352
  %.pre = load ptr, ptr %.phi.trans.insert, align 8
  br label %41

21:                                               ; preds = %2
  %22 = add i32 %17, 1
  %23 = zext i32 %22 to i64
  %24 = shl nuw nsw i64 %20, 1
  %25 = icmp uge i64 %24, %23
  %26 = icmp eq i64 %20, 0
  %27 = and i1 %26, %25
  %. = tail call i64 @llvm.umax.i64(i64 %24, i64 %23)
  %spec.select = select i1 %27, i64 1, i64 %.
  %28 = getelementptr inbounds i8, ptr %0, i64 352
  %29 = load ptr, ptr %28, align 8
  %30 = tail call ptr @H5FL_seq_realloc(ptr noundef nonnull @H5_H5FL_fac_head_ptr_t_seq_free_list, ptr noundef %29, i64 noundef %spec.select) #6
  %31 = icmp eq ptr %30, null
  br i1 %31, label %32, label %36

32:                                               ; preds = %21
  %33 = load i64, ptr @H5E_EARRAY_g, align 8
  %34 = load i64, ptr @H5E_CANTALLOC_g, align 8
  %35 = tail call i32 (ptr, ptr, i32, i64, i64, ptr, ...) @H5E_printf_stack(ptr noundef nonnull @.str, ptr noundef nonnull @__func__.H5EA__hdr_alloc_elmts, i32 noundef 256, i64 noundef %33, i64 noundef %34, ptr noundef nonnull @.str.5) #6
  br label %68

36:                                               ; preds = %21
  %37 = load i64, ptr %19, align 8
  %38 = getelementptr inbounds ptr, ptr %30, i64 %37
  %39 = sub i64 %spec.select, %37
  %40 = shl i64 %39, 3
  tail call void @llvm.memset.p0.i64(ptr nonnull align 8 %38, i8 0, i64 %40, i1 false)
  store i64 %spec.select, ptr %19, align 8
  store ptr %30, ptr %28, align 8
  br label %41

41:                                               ; preds = %._crit_edge, %36
  %42 = phi ptr [ %.pre, %._crit_edge ], [ %30, %36 ]
  %43 = getelementptr inbounds i8, ptr %0, i64 352
  %44 = getelementptr inbounds ptr, ptr %42, i64 %18
  %45 = load ptr, ptr %44, align 8
  %46 = icmp eq ptr %45, null
  br i1 %46, label %47, label %60

47:                                               ; preds = %41
  %48 = load ptr, ptr %8, align 8
  %49 = getelementptr inbounds i8, ptr %48, i64 16
  %50 = load i64, ptr %49, align 8
  %51 = mul i64 %50, %1
  %52 = tail call ptr @H5FL_fac_init(i64 noundef %51) #6
  %53 = load ptr, ptr %43, align 8
  %54 = getelementptr inbounds ptr, ptr %53, i64 %18
  store ptr %52, ptr %54, align 8
  %55 = icmp eq ptr %52, null
  br i1 %55, label %56, label %._crit_edge48

._crit_edge48:                                    ; preds = %47
  %.pre49 = load ptr, ptr %43, align 8
  %.phi.trans.insert50 = getelementptr inbounds ptr, ptr %.pre49, i64 %18
  %.pre51 = load ptr, ptr %.phi.trans.insert50, align 8
  br label %60

56:                                               ; preds = %47
  %57 = load i64, ptr @H5E_EARRAY_g, align 8
  %58 = load i64, ptr @H5E_CANTINIT_g, align 8
  %59 = tail call i32 (ptr, ptr, i32, i64, i64, ptr, ...) @H5E_printf_stack(ptr noundef nonnull @.str, ptr noundef nonnull @__func__.H5EA__hdr_alloc_elmts, i32 noundef 271, i64 noundef %57, i64 noundef %58, ptr noundef nonnull @.str.6) #6
  br label %68

60:                                               ; preds = %._crit_edge48, %41
  %61 = phi ptr [ %.pre51, %._crit_edge48 ], [ %45, %41 ]
  %62 = tail call noalias ptr @H5FL_fac_malloc(ptr noundef %61) #6
  %63 = icmp eq ptr %62, null
  br i1 %63, label %64, label %68

64:                                               ; preds = %60
  %65 = load i64, ptr @H5E_EARRAY_g, align 8
  %66 = load i64, ptr @H5E_CANTALLOC_g, align 8
  %67 = tail call i32 (ptr, ptr, i32, i64, i64, ptr, ...) @H5E_printf_stack(ptr noundef nonnull @.str, ptr noundef nonnull @__func__.H5EA__hdr_alloc_elmts, i32 noundef 277, i64 noundef %65, i64 noundef %66, ptr noundef nonnull @.str.7) #6
  br label %68

68:                                               ; preds = %32, %56, %64, %60
  %.0 = phi ptr [ null, %32 ], [ null, %56 ], [ null, %64 ], [ %62, %60 ]
  ret ptr %.0
}